target datalayout = "e-m:e-p270:32:32-p271:32:32-p272:64:64-i64:64-i128:128-f80:128-n8:16:32:64-S128"
target triple = "x86_64-pc-linux-gnu"

%struct.H5T_t = type { %struct.H5O_shared_t, ptr, %struct.H5O_loc_t, %struct.H5G_name_t, ptr }
%struct.H5O_shared_t = type { i32, ptr, i32, %union.anon.0 }
%union.anon.0 = type { %struct.H5O_mesg_loc_t }
%struct.H5O_mesg_loc_t = type { i32, i64 }
%struct.H5O_loc_t = type { ptr, i64, i8 }
%struct.H5G_name_t = type { ptr, ptr, i32 }
%struct.H5T_shared_t = type { i64, i32, i32, i64, i32, i8, ptr, ptr, %union.anon.1 }
%union.anon.1 = type { %struct.H5T_array_t }
%struct.H5T_array_t = type { i64, i32, [32 x i64] }
%struct.H5T_vlen_t = type { i32, i32, i32, i32, ptr, ptr }
%struct.H5T_vlen_class_t = type { ptr, ptr, ptr, ptr, ptr, ptr, ptr }
%struct.H5T_compnd_t = type { i32, i32, i32, i8, ptr, i64 }
%struct.H5T_cmemb_t = type { ptr, i64, i64, ptr }

@H5T_init_g = external global i8, align 1
@H5_libterm_g = external global i8, align 1
@.str = private unnamed_addr constant [106 x i8] c"generated/home/dtcxzyw/WorkSpace/Projects/compilers/llvm-opt-benchmark/bench/hdf5/hdf5/src/H5Tconv_vlen.c\00", align 1
@H5E_DATATYPE_g = external global i64, align 8
@H5E_BADTYPE_g = external global i64, align 8
@__func__.H5T__conv_vlen_nested_free = private unnamed_addr constant [27 x i8] c"H5T__conv_vlen_nested_free\00", align 1
@H5E_CANTFREE_g = external global i64, align 8
@.str.27 = private unnamed_addr constant [23 x i8] c"can't free nested vlen\00", align 1
@.str.28 = private unnamed_addr constant [27 x i8] c"can't free compound member\00", align 1
@.str.29 = private unnamed_addr constant [22 x i8] c"can't free array data\00", align 1
@.str.30 = private unnamed_addr constant [23 x i8] c"invalid datatype class\00", align 1

; Function Attrs: nounwind uwtable
define internal i32 @H5T__conv_vlen_nested_free(ptr noundef %0, ptr noundef %1) #0 {
  %3 = alloca i32, align 4
  %4 = alloca ptr, align 8
  %5 = alloca ptr, align 8
  %6 = alloca i32, align 4
  %7 = alloca i8, align 1
  %8 = alloca i32, align 4
  %9 = alloca i32, align 4
  %10 = alloca i32, align 4
  store ptr %0, ptr %4, align 8, !tbaa !19
  store ptr %1, ptr %5, align 8, !tbaa !3
  call void @llvm.lifetime.start.p0(i64 4, ptr %6) #6
  store i32 0, ptr %6, align 4, !tbaa !21
  call void @llvm.lifetime.start.p0(i64 1, ptr %7) #6
  store i8 0, ptr %7, align 1, !tbaa !17
  %11 = load i8, ptr @H5T_init_g, align 1, !tbaa !17, !range !23, !noundef !24
  %12 = trunc i8 %11 to i1
  br i1 %12, label %17, label %13

13:                                               ; preds = %2
  %14 = load i8, ptr @H5_libterm_g, align 1, !tbaa !17, !range !23, !noundef !24
  %15 = trunc i8 %14 to i1
  %16 = xor i1 %15, true
  br label %17

17:                                               ; preds = %13, %2
  %18 = phi i1 [ true, %2 ], [ %16, %13 ]
  %19 = xor i1 %18, true
  %20 = xor i1 %19, true
  %21 = zext i1 %20 to i32
  %22 = sext i32 %21 to i64
  %23 = call i64 @llvm.expect.i64(i64 %22, i64 1)
  %24 = icmp ne i64 %23, 0
  br i1 %24, label %25, label %216

25:                                               ; preds = %17
  %26 = load ptr, ptr %5, align 8, !tbaa !3
  %27 = getelementptr inbounds nuw %struct.H5T_t, ptr %26, i32 0, i32 1
  %28 = load ptr, ptr %27, align 8, !tbaa !27
  %29 = getelementptr inbounds nuw %struct.H5T_shared_t, ptr %28, i32 0, i32 2
  %30 = load i32, ptr %29, align 4, !tbaa !36
  switch i32 %30, label %195 [
    i32 9, label %31
    i32 6, label %69
    i32 10, label %133
    i32 0, label %193
    i32 1, label %193
    i32 2, label %193
    i32 3, label %193
    i32 4, label %193
    i32 5, label %193
    i32 7, label %193
    i32 8, label %193
    i32 11, label %193
    i32 -1, label %194
    i32 12, label %194
  ]

31:                                               ; preds = %25
  %32 = load ptr, ptr %5, align 8, !tbaa !3
  %33 = getelementptr inbounds nuw %struct.H5T_t, ptr %32, i32 0, i32 1
  %34 = load ptr, ptr %33, align 8, !tbaa !27
  %35 = getelementptr inbounds nuw %struct.H5T_shared_t, ptr %34, i32 0, i32 8
  %36 = getelementptr inbounds nuw %struct.H5T_vlen_t, ptr %35, i32 0, i32 5
  %37 = load ptr, ptr %36, align 8, !tbaa !38
  %38 = getelementptr inbounds nuw %struct.H5T_vlen_class_t, ptr %37, i32 0, i32 6
  %39 = load ptr, ptr %38, align 8, !tbaa !60
  %40 = load ptr, ptr %5, align 8, !tbaa !3
  %41 = getelementptr inbounds nuw %struct.H5T_t, ptr %40, i32 0, i32 1
  %42 = load ptr, ptr %41, align 8, !tbaa !27
  %43 = getelementptr inbounds nuw %struct.H5T_shared_t, ptr %42, i32 0, i32 8
  %44 = getelementptr inbounds nuw %struct.H5T_vlen_t, ptr %43, i32 0, i32 4
  %45 = load ptr, ptr %44, align 8, !tbaa !38
  %46 = load ptr, ptr %4, align 8, !tbaa !19
  %47 = call i32 %39(ptr noundef %45, ptr noundef %46)
  %48 = icmp slt i32 %47, 0
  br i1 %48, label %49, label %68

49:                                               ; preds = %31
  br label %50

50:                                               ; preds = %49
  br label %51

51:                                               ; preds = %50
  br label %52

52:                                               ; preds = %51
  %53 = load i64, ptr @H5E_DATATYPE_g, align 8, !tbaa !12
  %54 = load i64, ptr @H5E_CANTFREE_g, align 8, !tbaa !12
  %55 = call i32 (ptr, ptr, i32, i64, i64, ptr, ...) @H5E_printf_stack(ptr noundef @.str, ptr noundef @__func__.H5T__conv_vlen_nested_free, i32 noundef 77, i64 noundef %53, i64 noundef %54, ptr noundef @.str.27)
  br label %56

56:                                               ; preds = %52
  br label %57

57:                                               ; preds = %56
  store i8 1, ptr %7, align 1, !tbaa !17
  %58 = load i8, ptr %7, align 1, !tbaa !17, !range !23, !noundef !24
  %59 = trunc i8 %58 to i1
  %60 = zext i1 %59 to i8
  store i8 %60, ptr %7, align 1, !tbaa !17
  br label %61

61:                                               ; preds = %57
  br label %62

62:                                               ; preds = %61
  br label %63

63:                                               ; preds = %62
  store i32 -1, ptr %6, align 4, !tbaa !21
  br label %215

64:                                               ; No predecessors!
  br label %65

65:                                               ; preds = %64
  br label %66

66:                                               ; preds = %65
  br label %67

67:                                               ; preds = %66
  br label %68

68:                                               ; preds = %67, %31
  br label %214

69:                                               ; preds = %25
  call void @llvm.lifetime.start.p0(i64 4, ptr %8) #6
  store i32 0, ptr %8, align 4, !tbaa !21
  br label %70

70:                                               ; preds = %127, %69
  %71 = load i32, ptr %8, align 4, !tbaa !21
  %72 = load ptr, ptr %5, align 8, !tbaa !3
  %73 = getelementptr inbounds nuw %struct.H5T_t, ptr %72, i32 0, i32 1
  %74 = load ptr, ptr %73, align 8, !tbaa !27
  %75 = getelementptr inbounds nuw %struct.H5T_shared_t, ptr %74, i32 0, i32 8
  %76 = getelementptr inbounds nuw %struct.H5T_compnd_t, ptr %75, i32 0, i32 1
  %77 = load i32, ptr %76, align 4, !tbaa !38
  %78 = icmp ult i32 %71, %77
  br i1 %78, label %80, label %79

79:                                               ; preds = %70
  store i32 12, ptr %9, align 4
  br label %130

80:                                               ; preds = %70
  %81 = load ptr, ptr %4, align 8, !tbaa !19
  %82 = load ptr, ptr %5, align 8, !tbaa !3
  %83 = getelementptr inbounds nuw %struct.H5T_t, ptr %82, i32 0, i32 1
  %84 = load ptr, ptr %83, align 8, !tbaa !27
  %85 = getelementptr inbounds nuw %struct.H5T_shared_t, ptr %84, i32 0, i32 8
  %86 = getelementptr inbounds nuw %struct.H5T_compnd_t, ptr %85, i32 0, i32 4
  %87 = load ptr, ptr %86, align 8, !tbaa !38
  %88 = load i32, ptr %8, align 4, !tbaa !21
  %89 = zext i32 %88 to i64
  %90 = getelementptr inbounds nuw %struct.H5T_cmemb_t, ptr %87, i64 %89
  %91 = getelementptr inbounds nuw %struct.H5T_cmemb_t, ptr %90, i32 0, i32 1
  %92 = load i64, ptr %91, align 8, !tbaa !61
  %93 = getelementptr inbounds nuw i8, ptr %81, i64 %92
  %94 = load ptr, ptr %5, align 8, !tbaa !3
  %95 = getelementptr inbounds nuw %struct.H5T_t, ptr %94, i32 0, i32 1
  %96 = load ptr, ptr %95, align 8, !tbaa !27
  %97 = getelementptr inbounds nuw %struct.H5T_shared_t, ptr %96, i32 0, i32 8
  %98 = getelementptr inbounds nuw %struct.H5T_compnd_t, ptr %97, i32 0, i32 4
  %99 = load ptr, ptr %98, align 8, !tbaa !38
  %100 = load i32, ptr %8, align 4, !tbaa !21
  %101 = zext i32 %100 to i64
  %102 = getelementptr inbounds nuw %struct.H5T_cmemb_t, ptr %99, i64 %101
  %103 = getelementptr inbounds nuw %struct.H5T_cmemb_t, ptr %102, i32 0, i32 3
  %104 = load ptr, ptr %103, align 8, !tbaa !63
  %105 = call i32 @H5T__conv_vlen_nested_free(ptr noundef %93, ptr noundef %104)
  %106 = icmp slt i32 %105, 0
  br i1 %106, label %107, label %126

107:                                              ; preds = %80
  br label %108

108:                                              ; preds = %107
  br label %109

109:                                              ; preds = %108
  br label %110

110:                                              ; preds = %109
  %111 = load i64, ptr @H5E_DATATYPE_g, align 8, !tbaa !12
  %112 = load i64, ptr @H5E_CANTFREE_g, align 8, !tbaa !12
  %113 = call i32 (ptr, ptr, i32, i64, i64, ptr, ...) @H5E_printf_stack(ptr noundef @.str, ptr noundef @__func__.H5T__conv_vlen_nested_free, i32 noundef 85, i64 noundef %111, i64 noundef %112, ptr noundef @.str.28)
  br label %114

114:                                              ; preds = %110
  br label %115

115:                                              ; preds = %114
  store i8 1, ptr %7, align 1, !tbaa !17
  %116 = load i8, ptr %7, align 1, !tbaa !17, !range !23, !noundef !24
  %117 = trunc i8 %116 to i1
  %118 = zext i1 %117 to i8
  store i8 %118, ptr %7, align 1, !tbaa !17
  br label %119

119:                                              ; preds = %115
  br label %120

120:                                              ; preds = %119
  br label %121

121:                                              ; preds = %120
  store i32 -1, ptr %6, align 4, !tbaa !21
  store i32 11, ptr %9, align 4
  br label %130

122:                                              ; No predecessors!
  br label %123

123:                                              ; preds = %122
  br label %124

124:                                              ; preds = %123
  br label %125

125:                                              ; preds = %124
  br label %126

126:                                              ; preds = %125, %80
  br label %127

127:                                              ; preds = %126
  %128 = load i32, ptr %8, align 4, !tbaa !21
  %129 = add i32 %128, 1
  store i32 %129, ptr %8, align 4, !tbaa !21
  br label %70, !llvm.loop !64

130:                                              ; preds = %121, %79
  call void @llvm.lifetime.end.p0(i64 4, ptr %8) #6
  %131 = load i32, ptr %9, align 4
  switch i32 %131, label %218 [
    i32 12, label %132
    i32 11, label %215
  ]

132:                                              ; preds = %130
  br label %214

133:                                              ; preds = %25
  call void @llvm.lifetime.start.p0(i64 4, ptr %10) #6
  store i32 0, ptr %10, align 4, !tbaa !21
  br label %134

134:                                              ; preds = %187, %133
  %135 = load i32, ptr %10, align 4, !tbaa !21
  %136 = zext i32 %135 to i64
  %137 = load ptr, ptr %5, align 8, !tbaa !3
  %138 = getelementptr inbounds nuw %struct.H5T_t, ptr %137, i32 0, i32 1
  %139 = load ptr, ptr %138, align 8, !tbaa !27
  %140 = getelementptr inbounds nuw %struct.H5T_shared_t, ptr %139, i32 0, i32 8
  %141 = getelementptr inbounds nuw %struct.H5T_array_t, ptr %140, i32 0, i32 0
  %142 = load i64, ptr %141, align 8, !tbaa !38
  %143 = icmp ult i64 %136, %142
  br i1 %143, label %145, label %144

144:                                              ; preds = %134
  store i32 23, ptr %9, align 4
  br label %190

145:                                              ; preds = %134
  %146 = load ptr, ptr %4, align 8, !tbaa !19
  %147 = load i32, ptr %10, align 4, !tbaa !21
  %148 = zext i32 %147 to i64
  %149 = load ptr, ptr %5, align 8, !tbaa !3
  %150 = getelementptr inbounds nuw %struct.H5T_t, ptr %149, i32 0, i32 1
  %151 = load ptr, ptr %150, align 8, !tbaa !27
  %152 = getelementptr inbounds nuw %struct.H5T_shared_t, ptr %151, i32 0, i32 6
  %153 = load ptr, ptr %152, align 8, !tbaa !42
  %154 = getelementptr inbounds nuw %struct.H5T_t, ptr %153, i32 0, i32 1
  %155 = load ptr, ptr %154, align 8, !tbaa !27
  %156 = getelementptr inbounds nuw %struct.H5T_shared_t, ptr %155, i32 0, i32 3
  %157 = load i64, ptr %156, align 8, !tbaa !41
  %158 = mul i64 %148, %157
  %159 = getelementptr inbounds nuw i8, ptr %146, i64 %158
  %160 = load ptr, ptr %5, align 8, !tbaa !3
  %161 = getelementptr inbounds nuw %struct.H5T_t, ptr %160, i32 0, i32 1
  %162 = load ptr, ptr %161, align 8, !tbaa !27
  %163 = getelementptr inbounds nuw %struct.H5T_shared_t, ptr %162, i32 0, i32 6
  %164 = load ptr, ptr %163, align 8, !tbaa !42
  %165 = call i32 @H5T__conv_vlen_nested_free(ptr noundef %159, ptr noundef %164)
  %166 = icmp slt i32 %165, 0
  br i1 %166, label %167, label %186

167:                                              ; preds = %145
  br label %168

168:                                              ; preds = %167
  br label %169

169:                                              ; preds = %168
  br label %170

170:                                              ; preds = %169
  %171 = load i64, ptr @H5E_DATATYPE_g, align 8, !tbaa !12
  %172 = load i64, ptr @H5E_CANTFREE_g, align 8, !tbaa !12
  %173 = call i32 (ptr, ptr, i32, i64, i64, ptr, ...) @H5E_printf_stack(ptr noundef @.str, ptr noundef @__func__.H5T__conv_vlen_nested_free, i32 noundef 93, i64 noundef %171, i64 noundef %172, ptr noundef @.str.29)
  br label %174

174:                                              ; preds = %170
  br label %175

175:                                              ; preds = %174
  store i8 1, ptr %7, align 1, !tbaa !17
  %176 = load i8, ptr %7, align 1, !tbaa !17, !range !23, !noundef !24
  %177 = trunc i8 %176 to i1
  %178 = zext i1 %177 to i8
  store i8 %178, ptr %7, align 1, !tbaa !17
  br label %179

179:                                              ; preds = %175
  br label %180

180:                                              ; preds = %179
  br label %181

181:                                              ; preds = %180
  store i32 -1, ptr %6, align 4, !tbaa !21
  store i32 11, ptr %9, align 4
  br label %190

182:                                              ; No predecessors!
  br label %183

183:                                              ; preds = %182
  br label %184

184:                                              ; preds = %183
  br label %185

185:                                              ; preds = %184
  br label %186

186:                                              ; preds = %185, %145
  br label %187

187:                                              ; preds = %186
  %188 = load i32, ptr %10, align 4, !tbaa !21
  %189 = add i32 %188, 1
  store i32 %189, ptr %10, align 4, !tbaa !21
  br label %134, !llvm.loop !65

190:                                              ; preds = %181, %144
  call void @llvm.lifetime.end.p0(i64 4, ptr %10) #6
  %191 = load i32, ptr %9, align 4
  switch i32 %191, label %218 [
    i32 23, label %192
    i32 11, label %215
  ]

192:                                              ; preds = %190
  br label %214

193:                                              ; preds = %25, %25, %25, %25, %25, %25, %25, %25, %25
  br label %214

194:                                              ; preds = %25, %25
  br label %195

195:                                              ; preds = %25, %194
  br label %196

196:                                              ; preds = %195
  br label %197

197:                                              ; preds = %196
  br label %198

198:                                              ; preds = %197
  %199 = load i64, ptr @H5E_DATATYPE_g, align 8, !tbaa !12
  %200 = load i64, ptr @H5E_BADTYPE_g, align 8, !tbaa !12
  %201 = call i32 (ptr, ptr, i32, i64, i64, ptr, ...) @H5E_printf_stack(ptr noundef @.str, ptr noundef @__func__.H5T__conv_vlen_nested_free, i32 noundef 111, i64 noundef %199, i64 noundef %200, ptr noundef @.str.30)
  br label %202

202:                                              ; preds = %198
  br label %203

203:                                              ; preds = %202
  store i8 1, ptr %7, align 1, !tbaa !17
  %204 = load i8, ptr %7, align 1, !tbaa !17, !range !23, !noundef !24
  %205 = trunc i8 %204 to i1
  %206 = zext i1 %205 to i8
  store i8 %206, ptr %7, align 1, !tbaa !17
  br label %207

207:                                              ; preds = %203
  br label %208

208:                                              ; preds = %207
  br label %209

209:                                              ; preds = %208
  store i32 -1, ptr %6, align 4, !tbaa !21
  br label %215

210:                                              ; No predecessors!
  br label %211

211:                                              ; preds = %210
  br label %212

212:                                              ; preds = %211
  br label %213

213:                                              ; preds = %212
  br label %214

214:                                              ; preds = %213, %193, %192, %132, %68
  br label %215

215:                                              ; preds = %214, %190, %130, %209, %63
  br label %216

216:                                              ; preds = %215, %17
  %217 = load i32, ptr %6, align 4, !tbaa !21
  store i32 %217, ptr %3, align 4
  store i32 1, ptr %9, align 4
  br label %218

218:                                              ; preds = %216, %190, %130
  call void @llvm.lifetime.end.p0(i64 1, ptr %7) #6
  call void @llvm.lifetime.end.p0(i64 4, ptr %6) #6
  %219 = load i32, ptr %3, align 4
  ret i32 %219
}