; Function Attrs: nounwind uwtable
define internal fastcc noundef range(i32 -1, 1) i32 @H5T__conv_vlen_nested_free(ptr noundef %0, ptr noundef readonly captures(none) %1) unnamed_addr #0 {
  %3 = load i8, ptr @H5T_init_g, align 1, !tbaa !7, !range !9, !noundef !10
  %4 = trunc nuw i8 %3 to i1
  %5 = load i8, ptr @H5_libterm_g, align 1, !range !9
  %6 = trunc nuw i8 %5 to i1
  %7 = xor i1 %6, true
  %8 = select i1 %4, i1 true, i1 %7
  br i1 %8, label %9, label %.loopexit, !prof !11

9:                                                ; preds = %2
  %10 = getelementptr inbounds nuw i8, ptr %1, i64 40
  %11 = load ptr, ptr %10, align 8, !tbaa !16
  %12 = getelementptr inbounds nuw i8, ptr %11, i64 12
  %13 = load i32, ptr %12, align 4, !tbaa !25
  switch i32 %13, label %75 [
    i32 9, label %18
    i32 6, label %.preheader
    i32 10, label %.preheader32
    i32 0, label %.loopexit
    i32 1, label %.loopexit
    i32 2, label %.loopexit
    i32 3, label %.loopexit
    i32 4, label %.loopexit
    i32 5, label %.loopexit
    i32 7, label %.loopexit
    i32 8, label %.loopexit
    i32 11, label %.loopexit
  ]

.preheader32:                                     ; preds = %9
  %14 = getelementptr inbounds nuw i8, ptr %11, i64 48
  %15 = load i64, ptr %14, align 8, !tbaa !28
  %.not = icmp eq i64 %15, 0
  br i1 %.not, label %.loopexit, label %.lr.ph

.preheader:                                       ; preds = %9
  %16 = getelementptr inbounds nuw i8, ptr %11, i64 52
  %17 = load i32, ptr %16, align 4, !tbaa !28
  %.not37 = icmp eq i32 %17, 0
  br i1 %.not37, label %.loopexit, label %.lr.ph36

18:                                               ; preds = %9
  %19 = getelementptr inbounds nuw i8, ptr %11, i64 72
  %20 = load ptr, ptr %19, align 8, !tbaa !28
  %21 = getelementptr inbounds nuw i8, ptr %20, i64 48
  %22 = load ptr, ptr %21, align 8, !tbaa !50
  %23 = getelementptr inbounds nuw i8, ptr %11, i64 64
  %24 = load ptr, ptr %23, align 8, !tbaa !28
  %25 = tail call i32 %22(ptr noundef %24, ptr noundef %0) #6
  %26 = icmp slt i32 %25, 0
  br i1 %26, label %27, label %.loopexit

27:                                               ; preds = %18
  %28 = load i64, ptr @H5E_DATATYPE_g, align 8, !tbaa !3
  %29 = load i64, ptr @H5E_CANTFREE_g, align 8, !tbaa !3
  %30 = tail call i32 (ptr, ptr, i32, i64, i64, ptr, ...) @H5E_printf_stack(ptr noundef nonnull @.str, ptr noundef nonnull @__func__.H5T__conv_vlen_nested_free, i32 noundef 77, i64 noundef %28, i64 noundef %29, ptr noundef nonnull @.str.27) #6
  br label %.loopexit

31:                                               ; preds = %.lr.ph36
  %indvars.iv.next = add nuw nsw i64 %indvars.iv, 1
  %32 = load ptr, ptr %10, align 8, !tbaa !16
  %33 = getelementptr inbounds nuw i8, ptr %32, i64 52
  %34 = load i32, ptr %33, align 4, !tbaa !28
  %35 = zext i32 %34 to i64
  %36 = icmp samesign ult i64 %indvars.iv.next, %35
  br i1 %36, label %.lr.ph36, label %.loopexit, !llvm.loop !51

.lr.ph36:                                         ; preds = %.preheader, %31
  %indvars.iv = phi i64 [ %indvars.iv.next, %31 ], [ 0, %.preheader ]
  %37 = phi ptr [ %32, %31 ], [ %11, %.preheader ]
  %38 = getelementptr inbounds nuw i8, ptr %37, i64 64
  %39 = load ptr, ptr %38, align 8, !tbaa !28
  %40 = getelementptr inbounds nuw %struct.H5T_cmemb_t, ptr %39, i64 %indvars.iv
  %41 = getelementptr inbounds nuw i8, ptr %40, i64 8
  %42 = load i64, ptr %41, align 8, !tbaa !52
  %43 = getelementptr inbounds nuw i8, ptr %0, i64 %42
  %44 = getelementptr inbounds nuw i8, ptr %40, i64 24
  %45 = load ptr, ptr %44, align 8, !tbaa !55
  %46 = tail call fastcc i32 @H5T__conv_vlen_nested_free(ptr noundef %43, ptr noundef %45)
  %47 = icmp slt i32 %46, 0
  br i1 %47, label %48, label %31

48:                                               ; preds = %.lr.ph36
  %49 = load i64, ptr @H5E_DATATYPE_g, align 8, !tbaa !3
  %50 = load i64, ptr @H5E_CANTFREE_g, align 8, !tbaa !3
  %51 = tail call i32 (ptr, ptr, i32, i64, i64, ptr, ...) @H5E_printf_stack(ptr noundef nonnull @.str, ptr noundef nonnull @__func__.H5T__conv_vlen_nested_free, i32 noundef 85, i64 noundef %49, i64 noundef %50, ptr noundef nonnull @.str.28) #6
  br label %.loopexit

52:                                               ; preds = %.lr.ph
  %53 = add i32 %.034, 1
  %54 = zext i32 %53 to i64
  %55 = load ptr, ptr %10, align 8, !tbaa !16
  %56 = getelementptr inbounds nuw i8, ptr %55, i64 48
  %57 = load i64, ptr %56, align 8, !tbaa !28
  %58 = icmp ugt i64 %57, %54
  br i1 %58, label %.lr.ph, label %.loopexit, !llvm.loop !56

.lr.ph:                                           ; preds = %.preheader32, %52
  %59 = phi ptr [ %55, %52 ], [ %11, %.preheader32 ]
  %60 = phi i64 [ %54, %52 ], [ 0, %.preheader32 ]
  %.034 = phi i32 [ %53, %52 ], [ 0, %.preheader32 ]
  %61 = getelementptr inbounds nuw i8, ptr %59, i64 32
  %62 = load ptr, ptr %61, align 8, !tbaa !32
  %63 = getelementptr inbounds nuw i8, ptr %62, i64 40
  %64 = load ptr, ptr %63, align 8, !tbaa !16
  %65 = getelementptr inbounds nuw i8, ptr %64, i64 16
  %66 = load i64, ptr %65, align 8, !tbaa !31
  %67 = mul i64 %66, %60
  %68 = getelementptr inbounds nuw i8, ptr %0, i64 %67
  %69 = tail call fastcc i32 @H5T__conv_vlen_nested_free(ptr noundef %68, ptr noundef %62)
  %70 = icmp slt i32 %69, 0
  br i1 %70, label %71, label %52

71:                                               ; preds = %.lr.ph
  %72 = load i64, ptr @H5E_DATATYPE_g, align 8, !tbaa !3
  %73 = load i64, ptr @H5E_CANTFREE_g, align 8, !tbaa !3
  %74 = tail call i32 (ptr, ptr, i32, i64, i64, ptr, ...) @H5E_printf_stack(ptr noundef nonnull @.str, ptr noundef nonnull @__func__.H5T__conv_vlen_nested_free, i32 noundef 93, i64 noundef %72, i64 noundef %73, ptr noundef nonnull @.str.29) #6
  br label %.loopexit

75:                                               ; preds = %9
  %76 = load i64, ptr @H5E_DATATYPE_g, align 8, !tbaa !3
  %77 = load i64, ptr @H5E_BADTYPE_g, align 8, !tbaa !3
  %78 = tail call i32 (ptr, ptr, i32, i64, i64, ptr, ...) @H5E_printf_stack(ptr noundef nonnull @.str, ptr noundef nonnull @__func__.H5T__conv_vlen_nested_free, i32 noundef 111, i64 noundef %76, i64 noundef %77, ptr noundef nonnull @.str.30) #6
  br label %.loopexit

.loopexit:                                        ; preds = %52, %31, %.preheader32, %.preheader, %71, %2, %18, %9, %9, %9, %9, %9, %9, %9, %9, %9, %75, %27, %48
  %.030 = phi i32 [ -1, %75 ], [ 0, %9 ], [ 0, %9 ], [ 0, %9 ], [ 0, %9 ], [ 0, %9 ], [ 0, %9 ], [ 0, %9 ], [ 0, %9 ], [ 0, %9 ], [ -1, %27 ], [ 0, %18 ], [ 0, %2 ], [ -1, %48 ], [ -1, %71 ], [ 0, %.preheader ], [ 0, %.preheader32 ], [ 0, %31 ], [ 0, %52 ]
  ret i32 %.030
}